target datalayout = "e-m:e-p270:32:32-p271:32:32-p272:64:64-i64:64-i128:128-f80:128-n8:16:32:64-S128"
target triple = "x86_64-pc-linux-gnu"

%struct.nsis_st = type { i64, i32, i32, i64, i64, ptr, i32, i32, i32, i8, i8, i8, i8, %struct.stream_state, %struct.nsis_bzstream, %struct.CLI_LZMA, %struct.nsis_z_stream_s, ptr, ptr, [1024 x i8] }
%struct.stream_state = type { i32, ptr, i32, ptr }
%struct.nsis_bzstream = type { ptr, i32, i32, i32, ptr, i32, i32, i32, ptr, ptr, ptr, ptr }
%struct.CLI_LZMA = type { %struct.CLzmaDec, [5 x i8], i32, i32, i32, i32, i64, ptr, ptr, i64, i64 }
%struct.CLzmaDec = type { %struct._CLzmaProps, ptr, ptr, ptr, i32, i32, i64, i64, i32, i32, i32, [4 x i32], i32, i32, i32, i32, i32, [20 x i8] }
%struct._CLzmaProps = type { i32, i32, i32, i32 }
%struct.nsis_z_stream_s = type { ptr, i32, i64, ptr, i32, %struct.inflate_blocks_state }
%struct.inflate_blocks_state = type { %struct.z_stuff, i32, %union.anon.0, i32, i32, i64, [1440 x %struct.inflate_huft_s], [32768 x i8], ptr, ptr, ptr, i64 }
%struct.z_stuff = type { i8, [544 x %struct.inflate_huft_s], i32, i32, ptr, ptr, [288 x i32], [288 x i32] }
%struct.inflate_huft_s = type { %union.anon, i16 }
%union.anon = type { %struct.anon }
%struct.anon = type { i8, i8 }
%union.anon.0 = type { %struct.anon.1 }
%struct.anon.1 = type { i32, i32, [320 x i32], i32, ptr }

; Function Attrs: nounwind uwtable
define internal i32 @nsis_init(ptr noundef %0) #0 {
  %2 = alloca i32, align 4
  %3 = alloca ptr, align 8
  store ptr %0, ptr %3, align 8
  %4 = load ptr, ptr %3, align 8
  %5 = getelementptr inbounds %struct.nsis_st, ptr %4, i32 0, i32 9
  %6 = load i8, ptr %5, align 4
  %7 = zext i8 %6 to i32
  switch i32 %7, label %85 [
    i32 1, label %8
    i32 2, label %19
    i32 3, label %30
  ]

8:                                                ; preds = %1
  %9 = load ptr, ptr %3, align 8
  %10 = getelementptr inbounds %struct.nsis_st, ptr %9, i32 0, i32 14
  call void @llvm.memset.p0.i64(ptr align 8 %10, i8 0, i64 80, i1 false)
  %11 = load ptr, ptr %3, align 8
  %12 = getelementptr inbounds %struct.nsis_st, ptr %11, i32 0, i32 14
  %13 = call i32 @nsis_BZ2_bzDecompressInit(ptr noundef %12, i32 noundef 0, i32 noundef 0)
  %14 = icmp ne i32 %13, 0
  br i1 %14, label %15, label %16

15:                                               ; preds = %8
  store i32 7, ptr %2, align 4
  br label %86

16:                                               ; preds = %8
  %17 = load ptr, ptr %3, align 8
  %18 = getelementptr inbounds %struct.nsis_st, ptr %17, i32 0, i32 11
  store i8 1, ptr %18, align 2
  br label %85

19:                                               ; preds = %1
  %20 = load ptr, ptr %3, align 8
  %21 = getelementptr inbounds %struct.nsis_st, ptr %20, i32 0, i32 15
  call void @llvm.memset.p0.i64(ptr align 8 %21, i8 0, i64 200, i1 false)
  %22 = load ptr, ptr %3, align 8
  %23 = getelementptr inbounds %struct.nsis_st, ptr %22, i32 0, i32 15
  %24 = call i32 @cli_LzmaInit(ptr noundef %23, i64 noundef -1)
  %25 = icmp ne i32 %24, 0
  br i1 %25, label %26, label %27

26:                                               ; preds = %19
  store i32 7, ptr %2, align 4
  br label %86

27:                                               ; preds = %19
  %28 = load ptr, ptr %3, align 8
  %29 = getelementptr inbounds %struct.nsis_st, ptr %28, i32 0, i32 11
  store i8 1, ptr %29, align 2
  br label %85

30:                                               ; preds = %1
  %31 = load ptr, ptr %3, align 8
  %32 = getelementptr inbounds %struct.nsis_st, ptr %31, i32 0, i32 16
  call void @llvm.memset.p0.i64(ptr align 8 %32, i8 0, i64 112, i1 false)
  %33 = load ptr, ptr %3, align 8
  %34 = getelementptr inbounds %struct.nsis_st, ptr %33, i32 0, i32 16
  %35 = getelementptr inbounds %struct.nsis_z_stream_s, ptr %34, i32 0, i32 5
  %36 = getelementptr inbounds %struct.inflate_blocks_state, ptr %35, i32 0, i32 0
  %37 = getelementptr inbounds %struct.z_stuff, ptr %36, i32 0, i32 0
  store i8 0, ptr %37, align 8
  %38 = load ptr, ptr %3, align 8
  %39 = getelementptr inbounds %struct.nsis_st, ptr %38, i32 0, i32 16
  %40 = getelementptr inbounds %struct.nsis_z_stream_s, ptr %39, i32 0, i32 5
  %41 = getelementptr inbounds %struct.inflate_blocks_state, ptr %40, i32 0, i32 0
  %42 = getelementptr inbounds %struct.z_stuff, ptr %41, i32 0, i32 2
  store i32 9, ptr %42, align 4
  %43 = load ptr, ptr %3, align 8
  %44 = getelementptr inbounds %struct.nsis_st, ptr %43, i32 0, i32 16
  %45 = getelementptr inbounds %struct.nsis_z_stream_s, ptr %44, i32 0, i32 5
  %46 = getelementptr inbounds %struct.inflate_blocks_state, ptr %45, i32 0, i32 0
  %47 = getelementptr inbounds %struct.z_stuff, ptr %46, i32 0, i32 3
  store i32 5, ptr %47, align 8
  %48 = load ptr, ptr %3, align 8
  %49 = getelementptr inbounds %struct.nsis_st, ptr %48, i32 0, i32 16
  %50 = getelementptr inbounds %struct.nsis_z_stream_s, ptr %49, i32 0, i32 5
  %51 = getelementptr inbounds %struct.inflate_blocks_state, ptr %50, i32 0, i32 1
  store i32 8, ptr %51, align 8
  %52 = load ptr, ptr %3, align 8
  %53 = getelementptr inbounds %struct.nsis_st, ptr %52, i32 0, i32 16
  %54 = getelementptr inbounds %struct.nsis_z_stream_s, ptr %53, i32 0, i32 5
  %55 = getelementptr inbounds %struct.inflate_blocks_state, ptr %54, i32 0, i32 5
  store i64 0, ptr %55, align 8
  %56 = load ptr, ptr %3, align 8
  %57 = getelementptr inbounds %struct.nsis_st, ptr %56, i32 0, i32 16
  %58 = getelementptr inbounds %struct.nsis_z_stream_s, ptr %57, i32 0, i32 5
  %59 = getelementptr inbounds %struct.inflate_blocks_state, ptr %58, i32 0, i32 4
  store i32 0, ptr %59, align 4
  %60 = load ptr, ptr %3, align 8
  %61 = getelementptr inbounds %struct.nsis_st, ptr %60, i32 0, i32 16
  %62 = getelementptr inbounds %struct.nsis_z_stream_s, ptr %61, i32 0, i32 5
  %63 = getelementptr inbounds %struct.inflate_blocks_state, ptr %62, i32 0, i32 7
  %64 = getelementptr inbounds [32768 x i8], ptr %63, i64 0, i64 0
  %65 = load ptr, ptr %3, align 8
  %66 = getelementptr inbounds %struct.nsis_st, ptr %65, i32 0, i32 16
  %67 = getelementptr inbounds %struct.nsis_z_stream_s, ptr %66, i32 0, i32 5
  %68 = getelementptr inbounds %struct.inflate_blocks_state, ptr %67, i32 0, i32 10
  store ptr %64, ptr %68, align 8
  %69 = load ptr, ptr %3, align 8
  %70 = getelementptr inbounds %struct.nsis_st, ptr %69, i32 0, i32 16
  %71 = getelementptr inbounds %struct.nsis_z_stream_s, ptr %70, i32 0, i32 5
  %72 = getelementptr inbounds %struct.inflate_blocks_state, ptr %71, i32 0, i32 9
  store ptr %64, ptr %72, align 8
  %73 = load ptr, ptr %3, align 8
  %74 = getelementptr inbounds %struct.nsis_st, ptr %73, i32 0, i32 16
  %75 = getelementptr inbounds %struct.nsis_z_stream_s, ptr %74, i32 0, i32 5
  %76 = getelementptr inbounds %struct.inflate_blocks_state, ptr %75, i32 0, i32 7
  %77 = getelementptr inbounds [32768 x i8], ptr %76, i64 0, i64 0
  %78 = getelementptr inbounds i8, ptr %77, i64 32768
  %79 = load ptr, ptr %3, align 8
  %80 = getelementptr inbounds %struct.nsis_st, ptr %79, i32 0, i32 16
  %81 = getelementptr inbounds %struct.nsis_z_stream_s, ptr %80, i32 0, i32 5
  %82 = getelementptr inbounds %struct.inflate_blocks_state, ptr %81, i32 0, i32 8
  store ptr %78, ptr %82, align 8
  %83 = load ptr, ptr %3, align 8
  %84 = getelementptr inbounds %struct.nsis_st, ptr %83, i32 0, i32 11
  store i8 0, ptr %84, align 2
  br label %85

85:                                               ; preds = %30, %27, %16, %1
  store i32 0, ptr %2, align 4
  br label %86

86:                                               ; preds = %85, %26, %15
  %87 = load i32, ptr %2, align 4
  ret i32 %87
}