; Function Attrs: nounwind uwtable
define internal fastcc noundef i32 @nsis_init(ptr noundef %0) unnamed_addr #0 {
  %2 = getelementptr inbounds i8, ptr %0, i64 52
  %3 = load i8, ptr %2, align 4
  switch i8 %3, label %22 [
    i8 1, label %4
    i8 2, label %7
    i8 3, label %10
  ]

4:                                                ; preds = %1
  %5 = getelementptr inbounds i8, ptr %0, i64 88
  tail call void @llvm.memset.p0.i64(ptr noundef nonnull align 8 dereferenceable(80) %5, i8 0, i64 80, i1 false)
  %6 = tail call i32 @nsis_BZ2_bzDecompressInit(ptr noundef nonnull %5, i32 noundef 0, i32 noundef 0) #10
  %.not20 = icmp eq i32 %6, 0
  br i1 %.not20, label %.sink.split, label %22

7:                                                ; preds = %1
  %8 = getelementptr inbounds i8, ptr %0, i64 168
  tail call void @llvm.memset.p0.i64(ptr noundef nonnull align 8 dereferenceable(200) %8, i8 0, i64 200, i1 false)
  %9 = tail call i32 @cli_LzmaInit(ptr noundef nonnull %8, i64 noundef -1) #10
  %.not = icmp eq i32 %9, 0
  br i1 %.not, label %.sink.split, label %22

10:                                               ; preds = %1
  %11 = getelementptr inbounds i8, ptr %0, i64 368
  %12 = getelementptr inbounds i8, ptr %0, i64 2588
  tail call void @llvm.memset.p0.i64(ptr noundef nonnull align 8 dereferenceable(112) %11, i8 0, i64 112, i1 false)
  store i32 9, ptr %12, align 4
  %13 = getelementptr inbounds i8, ptr %0, i64 2592
  store i32 5, ptr %13, align 8
  %14 = getelementptr inbounds i8, ptr %0, i64 4920
  store i32 8, ptr %14, align 8
  %15 = getelementptr inbounds i8, ptr %0, i64 6240
  store i64 0, ptr %15, align 8
  %16 = getelementptr inbounds i8, ptr %0, i64 6236
  store i32 0, ptr %16, align 4
  %17 = getelementptr inbounds i8, ptr %0, i64 12008
  %18 = getelementptr inbounds i8, ptr %0, i64 44792
  store ptr %17, ptr %18, align 8
  %19 = getelementptr inbounds i8, ptr %0, i64 44784
  store ptr %17, ptr %19, align 8
  %20 = getelementptr inbounds i8, ptr %0, i64 44776
  store ptr %20, ptr %20, align 8
  br label %.sink.split

.sink.split:                                      ; preds = %7, %4, %10
  %.sink = phi i8 [ 0, %10 ], [ 1, %4 ], [ 1, %7 ]
  %21 = getelementptr inbounds i8, ptr %0, i64 54
  store i8 %.sink, ptr %21, align 2
  br label %22

22:                                               ; preds = %.sink.split, %1, %7, %4
  %.0 = phi i32 [ 7, %4 ], [ 7, %7 ], [ 0, %1 ], [ 0, %.sink.split ]
  ret i32 %.0
}